; Function Attrs: nounwind uwtable
define internal noundef i32 @bf_pow_generic(ptr noundef initializes((8, 12), (16, 24)) %0, ptr noundef %1, i64 noundef %2, ptr noundef captures(address) %3) #2 {
  %5 = alloca %struct.bf_t, align 8
  %6 = load ptr, ptr %0, align 8, !tbaa !28
  call void @llvm.lifetime.start.p0(i64 40, ptr nonnull %5) #21
  store ptr %6, ptr %5, align 8, !tbaa !28
  %7 = getelementptr inbounds nuw i8, ptr %5, i64 8
  store i32 0, ptr %7, align 8, !tbaa !30
  %8 = getelementptr inbounds nuw i8, ptr %5, i64 16
  store i64 -9223372036854775808, ptr %8, align 8, !tbaa !31
  %9 = getelementptr inbounds nuw i8, ptr %5, i64 24
  call void @llvm.memset.p0.i64(ptr noundef nonnull align 8 dereferenceable(16) %9, i8 0, i64 16, i1 false)
  %10 = add i64 %2, 32
  %11 = call i32 @bf_log(ptr noundef nonnull %5, ptr noundef %1, i64 noundef %10, i32 noundef 2022)
  %12 = call i32 @bf_mul(ptr noundef nonnull %5, ptr noundef nonnull %5, ptr noundef %3, i64 noundef %10, i32 noundef 2022)
  %.val = load i64, ptr %8, align 8, !tbaa !31
  %.not = icmp eq i64 %.val, 9223372036854775807
  br i1 %.not, label %13, label %24

13:                                               ; preds = %4
  %14 = getelementptr inbounds nuw i8, ptr %0, i64 24
  %15 = load i64, ptr %14, align 8, !tbaa !32
  %.not.i.i = icmp eq i64 %15, 0
  br i1 %.not.i.i, label %bf_set_nan.exit, label %16

16:                                               ; preds = %13
  %17 = load ptr, ptr %0, align 8, !tbaa !28
  %18 = getelementptr inbounds nuw i8, ptr %0, i64 32
  %19 = load ptr, ptr %18, align 8, !tbaa !29
  %.val.i.i = load ptr, ptr %17, align 8, !tbaa !19
  %20 = getelementptr i8, ptr %17, i64 8
  %.val13.i.i = load ptr, ptr %20, align 8, !tbaa !7
  %21 = call ptr %.val13.i.i(ptr noundef %.val.i.i, ptr noundef %19, i64 noundef 0) #21
  store ptr %21, ptr %18, align 8, !tbaa !29
  store i64 0, ptr %14, align 8, !tbaa !32
  br label %bf_set_nan.exit

bf_set_nan.exit:                                  ; preds = %13, %16
  %22 = getelementptr inbounds nuw i8, ptr %0, i64 16
  store i64 9223372036854775807, ptr %22, align 8, !tbaa !31
  %23 = getelementptr inbounds nuw i8, ptr %0, i64 8
  store i32 0, ptr %23, align 8, !tbaa !30
  br label %26

24:                                               ; preds = %4
  %25 = call i32 @bf_exp_internal(ptr noundef nonnull %0, ptr noundef nonnull %5, i64 noundef %10, ptr poison)
  br label %26

26:                                               ; preds = %24, %bf_set_nan.exit
  %27 = load ptr, ptr %5, align 8, !tbaa !28
  %.not.i = icmp eq ptr %27, null
  br i1 %.not.i, label %bf_delete.exit, label %28

28:                                               ; preds = %26
  %29 = getelementptr inbounds nuw i8, ptr %5, i64 32
  %30 = load ptr, ptr %29, align 8, !tbaa !29
  %.not6.i = icmp eq ptr %30, null
  br i1 %.not6.i, label %bf_delete.exit, label %31

31:                                               ; preds = %28
  %.val.i = load ptr, ptr %27, align 8, !tbaa !19
  %32 = getelementptr i8, ptr %27, i64 8
  %.val7.i = load ptr, ptr %32, align 8, !tbaa !7
  %33 = call ptr %.val7.i(ptr noundef %.val.i, ptr noundef nonnull %30, i64 noundef 0) #21
  br label %bf_delete.exit

bf_delete.exit:                                   ; preds = %26, %28, %31
  call void @llvm.lifetime.end.p0(i64 40, ptr nonnull %5) #21
  ret i32 16
}